target datalayout = "e-m:e-p270:32:32-p271:32:32-p272:64:64-i64:64-i128:128-f80:128-n8:16:32:64-S128"
target triple = "x86_64-pc-linux-gnu"

%struct.Scl_Tree_t_ = type { ptr, ptr, i64, i32, i32, i32, ptr, ptr, i64, ptr }
%struct.Vec_Str_t_ = type { i32, i32, ptr }
%struct.timespec = type { i64, i64 }

@.str.9 = private unnamed_addr constant [3 x i8] c"rb\00", align 1
@.str.10 = private unnamed_addr constant [72 x i8] c"Scl_LibertyFileSize(): The input file is unavailable (absent or open).\0A\00", align 1

; Function Attrs: nounwind uwtable
define internal ptr @Vec_StrAlloc(i32 noundef %0) #0 {
  %2 = alloca i32, align 4
  %3 = alloca ptr, align 8
  store i32 %0, ptr %2, align 4
  %4 = call noalias ptr @malloc(i64 noundef 16) #12
  store ptr %4, ptr %3, align 8
  %5 = load i32, ptr %2, align 4
  %6 = icmp sgt i32 %5, 0
  br i1 %6, label %7, label %11

7:                                                ; preds = %1
  %8 = load i32, ptr %2, align 4
  %9 = icmp slt i32 %8, 16
  br i1 %9, label %10, label %11

10:                                               ; preds = %7
  store i32 16, ptr %2, align 4
  br label %11

11:                                               ; preds = %10, %7, %1
  %12 = load ptr, ptr %3, align 8
  %13 = getelementptr inbounds %struct.Vec_Str_t_, ptr %12, i32 0, i32 1
  store i32 0, ptr %13, align 4
  %14 = load i32, ptr %2, align 4
  %15 = load ptr, ptr %3, align 8
  %16 = getelementptr inbounds %struct.Vec_Str_t_, ptr %15, i32 0, i32 0
  store i32 %14, ptr %16, align 8
  %17 = load ptr, ptr %3, align 8
  %18 = getelementptr inbounds %struct.Vec_Str_t_, ptr %17, i32 0, i32 0
  %19 = load i32, ptr %18, align 8
  %20 = icmp ne i32 %19, 0
  br i1 %20, label %21, label %28

21:                                               ; preds = %11
  %22 = load ptr, ptr %3, align 8
  %23 = getelementptr inbounds %struct.Vec_Str_t_, ptr %22, i32 0, i32 0
  %24 = load i32, ptr %23, align 8
  %25 = sext i32 %24 to i64
  %26 = mul i64 1, %25
  %27 = call noalias ptr @malloc(i64 noundef %26) #12
  br label %29

28:                                               ; preds = %11
  br label %29

29:                                               ; preds = %28, %21
  %30 = phi ptr [ %27, %21 ], [ null, %28 ]
  %31 = load ptr, ptr %3, align 8
  %32 = getelementptr inbounds %struct.Vec_Str_t_, ptr %31, i32 0, i32 2
  store ptr %30, ptr %32, align 8
  %33 = load ptr, ptr %3, align 8
  ret ptr %33
}

; Function Attrs: nounwind uwtable
define internal ptr @Vec_StrStart(i32 noundef %0) #0 {
  %2 = alloca i32, align 4
  %3 = alloca ptr, align 8
  store i32 %0, ptr %2, align 4
  %4 = load i32, ptr %2, align 4
  %5 = call ptr @Vec_StrAlloc(i32 noundef %4)
  store ptr %5, ptr %3, align 8
  %6 = load i32, ptr %2, align 4
  %7 = load ptr, ptr %3, align 8
  %8 = getelementptr inbounds %struct.Vec_Str_t_, ptr %7, i32 0, i32 1
  store i32 %6, ptr %8, align 4
  %9 = load ptr, ptr %3, align 8
  %10 = getelementptr inbounds %struct.Vec_Str_t_, ptr %9, i32 0, i32 2
  %11 = load ptr, ptr %10, align 8
  %12 = load i32, ptr %2, align 4
  %13 = sext i32 %12 to i64
  %14 = mul i64 1, %13
  call void @llvm.memset.p0.i64(ptr align 1 %11, i8 0, i64 %14, i1 false)
  %15 = load ptr, ptr %3, align 8
  ret ptr %15
}

; Function Attrs: nounwind uwtable
define i32 @Scl_LibertyCountItems(ptr noundef %0, ptr noundef %1) #0 {
  %3 = alloca ptr, align 8
  %4 = alloca ptr, align 8
  %5 = alloca i32, align 4
  store ptr %0, ptr %3, align 8
  store ptr %1, ptr %4, align 8
  store i32 0, ptr %5, align 4
  br label %6

6:                                                ; preds = %25, %2
  %7 = load ptr, ptr %3, align 8
  %8 = load ptr, ptr %4, align 8
  %9 = icmp ult ptr %7, %8
  br i1 %9, label %10, label %28

10:                                               ; preds = %6
  %11 = load ptr, ptr %3, align 8
  %12 = load i8, ptr %11, align 1
  %13 = sext i8 %12 to i32
  %14 = icmp eq i32 %13, 40
  br i1 %14, label %20, label %15

15:                                               ; preds = %10
  %16 = load ptr, ptr %3, align 8
  %17 = load i8, ptr %16, align 1
  %18 = sext i8 %17 to i32
  %19 = icmp eq i32 %18, 58
  br label %20

20:                                               ; preds = %15, %10
  %21 = phi i1 [ true, %10 ], [ %19, %15 ]
  %22 = zext i1 %21 to i32
  %23 = load i32, ptr %5, align 4
  %24 = add nsw i32 %23, %22
  store i32 %24, ptr %5, align 4
  br label %25

25:                                               ; preds = %20
  %26 = load ptr, ptr %3, align 8
  %27 = getelementptr inbounds i8, ptr %26, i32 1
  store ptr %27, ptr %3, align 8
  br label %6, !llvm.loop !7

28:                                               ; preds = %6
  %29 = load i32, ptr %5, align 4
  ret i32 %29
}

; Function Attrs: nounwind uwtable
define internal ptr @Abc_UtilStrsav(ptr noundef %0) #0 {
  %2 = alloca ptr, align 8
  store ptr %0, ptr %2, align 8
  %3 = load ptr, ptr %2, align 8
  %4 = icmp ne ptr %3, null
  br i1 %4, label %5, label %13

5:                                                ; preds = %1
  %6 = load ptr, ptr %2, align 8
  %7 = call i64 @strlen(ptr noundef %6) #11
  %8 = add i64 %7, 1
  %9 = mul i64 1, %8
  %10 = call noalias ptr @malloc(i64 noundef %9) #12
  %11 = load ptr, ptr %2, align 8
  %12 = call ptr @strcpy(ptr noundef %10, ptr noundef %11) #10
  br label %14

13:                                               ; preds = %1
  br label %14

14:                                               ; preds = %13, %5
  %15 = phi ptr [ %12, %5 ], [ null, %13 ]
  ret ptr %15
}

; Function Attrs: nounwind uwtable
define ptr @Scl_LibertyFileContents(ptr noundef %0, i64 noundef %1) #0 {
  %3 = alloca ptr, align 8
  %4 = alloca i64, align 8
  %5 = alloca ptr, align 8
  %6 = alloca ptr, align 8
  %7 = alloca i32, align 4
  store ptr %0, ptr %3, align 8
  store i64 %1, ptr %4, align 8
  %8 = load ptr, ptr %3, align 8
  %9 = call noalias ptr @fopen(ptr noundef %8, ptr noundef @.str.9)
  store ptr %9, ptr %5, align 8
  %10 = load i64, ptr %4, align 8
  %11 = add nsw i64 %10, 1
  %12 = mul i64 1, %11
  %13 = call noalias ptr @malloc(i64 noundef %12) #12
  store ptr %13, ptr %6, align 8
  store i32 0, ptr %7, align 4
  %14 = load ptr, ptr %6, align 8
  %15 = load i64, ptr %4, align 8
  %16 = load ptr, ptr %5, align 8
  %17 = call i64 @fread(ptr noundef %14, i64 noundef %15, i64 noundef 1, ptr noundef %16)
  %18 = trunc i64 %17 to i32
  store i32 %18, ptr %7, align 4
  %19 = load ptr, ptr %5, align 8
  %20 = call i32 @fclose(ptr noundef %19)
  %21 = load ptr, ptr %6, align 8
  %22 = load i64, ptr %4, align 8
  %23 = getelementptr inbounds i8, ptr %21, i64 %22
  store i8 0, ptr %23, align 1
  %24 = load ptr, ptr %6, align 8
  ret ptr %24
}

; Function Attrs: nounwind uwtable
define internal i64 @Abc_Clock() #0 {
  %1 = alloca i64, align 8
  %2 = alloca %struct.timespec, align 8
  %3 = alloca i64, align 8
  %4 = call i32 @clock_gettime(i32 noundef 1, ptr noundef %2) #10
  %5 = icmp slt i32 %4, 0
  br i1 %5, label %6, label %7

6:                                                ; preds = %0
  store i64 -1, ptr %1, align 8
  br label %18

7:                                                ; preds = %0
  %8 = getelementptr inbounds %struct.timespec, ptr %2, i32 0, i32 0
  %9 = load i64, ptr %8, align 8
  %10 = mul nsw i64 %9, 1000000
  store i64 %10, ptr %3, align 8
  %11 = getelementptr inbounds %struct.timespec, ptr %2, i32 0, i32 1
  %12 = load i64, ptr %11, align 8
  %13 = mul nsw i64 %12, 1000000
  %14 = sdiv i64 %13, 1000000000
  %15 = load i64, ptr %3, align 8
  %16 = add nsw i64 %15, %14
  store i64 %16, ptr %3, align 8
  %17 = load i64, ptr %3, align 8
  store i64 %17, ptr %1, align 8
  br label %18

18:                                               ; preds = %7, %6
  %19 = load i64, ptr %1, align 8
  ret i64 %19
}

; Function Attrs: nounwind uwtable
define i64 @Scl_LibertyFileSize(ptr noundef %0) #0 {
  %2 = alloca i64, align 8
  %3 = alloca ptr, align 8
  %4 = alloca ptr, align 8
  %5 = alloca i64, align 8
  store ptr %0, ptr %3, align 8
  %6 = load ptr, ptr %3, align 8
  %7 = call noalias ptr @fopen(ptr noundef %6, ptr noundef @.str.9)
  store ptr %7, ptr %4, align 8
  %8 = load ptr, ptr %4, align 8
  %9 = icmp eq ptr %8, null
  br i1 %9, label %10, label %12

10:                                               ; preds = %1
  %11 = call i32 (ptr, ...) @printf(ptr noundef @.str.10)
  store i64 0, ptr %2, align 8
  br label %20

12:                                               ; preds = %1
  %13 = load ptr, ptr %4, align 8
  %14 = call i32 @fseek(ptr noundef %13, i64 noundef 0, i32 noundef 2)
  %15 = load ptr, ptr %4, align 8
  %16 = call i64 @ftell(ptr noundef %15)
  store i64 %16, ptr %5, align 8
  %17 = load ptr, ptr %4, align 8
  %18 = call i32 @fclose(ptr noundef %17)
  %19 = load i64, ptr %5, align 8
  store i64 %19, ptr %2, align 8
  br label %20

20:                                               ; preds = %12, %10
  %21 = load i64, ptr %2, align 8
  ret i64 %21
}

; Function Attrs: nounwind uwtable
define void @Scl_LibertyFixFileName(ptr noundef %0) #0 {
  %2 = alloca ptr, align 8
  %3 = alloca ptr, align 8
  store ptr %0, ptr %2, align 8
  %4 = load ptr, ptr %2, align 8
  store ptr %4, ptr %3, align 8
  br label %5

5:                                                ; preds = %17, %1
  %6 = load ptr, ptr %3, align 8
  %7 = load i8, ptr %6, align 1
  %8 = icmp ne i8 %7, 0
  br i1 %8, label %9, label %20

9:                                                ; preds = %5
  %10 = load ptr, ptr %3, align 8
  %11 = load i8, ptr %10, align 1
  %12 = sext i8 %11 to i32
  %13 = icmp eq i32 %12, 62
  br i1 %13, label %14, label %16

14:                                               ; preds = %9
  %15 = load ptr, ptr %3, align 8
  store i8 92, ptr %15, align 1
  br label %16

16:                                               ; preds = %14, %9
  br label %17

17:                                               ; preds = %16
  %18 = load ptr, ptr %3, align 8
  %19 = getelementptr inbounds i8, ptr %18, i32 1
  store ptr %19, ptr %3, align 8
  br label %5, !llvm.loop !22

20:                                               ; preds = %5
  ret void
}

; Function Attrs: nounwind uwtable
define ptr @Scl_LibertyStart(ptr noundef %0) #0 {
  %2 = alloca ptr, align 8
  %3 = alloca ptr, align 8
  %4 = alloca ptr, align 8
  %5 = alloca i64, align 8
  store ptr %0, ptr %3, align 8
  %6 = load ptr, ptr %3, align 8
  call void @Scl_LibertyFixFileName(ptr noundef %6)
  %7 = load ptr, ptr %3, align 8
  %8 = call i64 @Scl_LibertyFileSize(ptr noundef %7)
  store i64 %8, ptr %5, align 8
  %9 = load i64, ptr %5, align 8
  %10 = icmp eq i64 %9, 0
  br i1 %10, label %11, label %12

11:                                               ; preds = %1
  store ptr null, ptr %2, align 8
  br label %61

12:                                               ; preds = %1
  %13 = call noalias ptr @malloc(i64 noundef 72) #12
  store ptr %13, ptr %4, align 8
  %14 = load ptr, ptr %4, align 8
  call void @llvm.memset.p0.i64(ptr align 8 %14, i8 0, i64 72, i1 false)
  %15 = call i64 @Abc_Clock()
  %16 = load ptr, ptr %4, align 8
  %17 = getelementptr inbounds %struct.Scl_Tree_t_, ptr %16, i32 0, i32 8
  store i64 %15, ptr %17, align 8
  %18 = load i64, ptr %5, align 8
  %19 = load ptr, ptr %4, align 8
  %20 = getelementptr inbounds %struct.Scl_Tree_t_, ptr %19, i32 0, i32 2
  store i64 %18, ptr %20, align 8
  %21 = load ptr, ptr %3, align 8
  %22 = load ptr, ptr %4, align 8
  %23 = getelementptr inbounds %struct.Scl_Tree_t_, ptr %22, i32 0, i32 2
  %24 = load i64, ptr %23, align 8
  %25 = call ptr @Scl_LibertyFileContents(ptr noundef %21, i64 noundef %24)
  %26 = load ptr, ptr %4, align 8
  %27 = getelementptr inbounds %struct.Scl_Tree_t_, ptr %26, i32 0, i32 1
  store ptr %25, ptr %27, align 8
  %28 = load ptr, ptr %3, align 8
  %29 = call ptr @Abc_UtilStrsav(ptr noundef %28)
  %30 = load ptr, ptr %4, align 8
  %31 = getelementptr inbounds %struct.Scl_Tree_t_, ptr %30, i32 0, i32 0
  store ptr %29, ptr %31, align 8
  %32 = load ptr, ptr %4, align 8
  %33 = getelementptr inbounds %struct.Scl_Tree_t_, ptr %32, i32 0, i32 1
  %34 = load ptr, ptr %33, align 8
  %35 = load ptr, ptr %4, align 8
  %36 = getelementptr inbounds %struct.Scl_Tree_t_, ptr %35, i32 0, i32 1
  %37 = load ptr, ptr %36, align 8
  %38 = load ptr, ptr %4, align 8
  %39 = getelementptr inbounds %struct.Scl_Tree_t_, ptr %38, i32 0, i32 2
  %40 = load i64, ptr %39, align 8
  %41 = getelementptr inbounds i8, ptr %37, i64 %40
  %42 = call i32 @Scl_LibertyCountItems(ptr noundef %34, ptr noundef %41)
  %43 = add nsw i32 10, %42
  %44 = load ptr, ptr %4, align 8
  %45 = getelementptr inbounds %struct.Scl_Tree_t_, ptr %44, i32 0, i32 5
  store i32 %43, ptr %45, align 8
  %46 = load ptr, ptr %4, align 8
  %47 = getelementptr inbounds %struct.Scl_Tree_t_, ptr %46, i32 0, i32 5
  %48 = load i32, ptr %47, align 8
  %49 = sext i32 %48 to i64
  %50 = call noalias ptr @calloc(i64 noundef %49, i64 noundef 40) #13
  %51 = load ptr, ptr %4, align 8
  %52 = getelementptr inbounds %struct.Scl_Tree_t_, ptr %51, i32 0, i32 6
  store ptr %50, ptr %52, align 8
  %53 = load ptr, ptr %4, align 8
  %54 = getelementptr inbounds %struct.Scl_Tree_t_, ptr %53, i32 0, i32 4
  store i32 0, ptr %54, align 4
  %55 = load ptr, ptr %4, align 8
  %56 = getelementptr inbounds %struct.Scl_Tree_t_, ptr %55, i32 0, i32 3
  store i32 1, ptr %56, align 8
  %57 = call ptr @Vec_StrStart(i32 noundef 10)
  %58 = load ptr, ptr %4, align 8
  %59 = getelementptr inbounds %struct.Scl_Tree_t_, ptr %58, i32 0, i32 9
  store ptr %57, ptr %59, align 8
  %60 = load ptr, ptr %4, align 8
  store ptr %60, ptr %2, align 8
  br label %61

61:                                               ; preds = %12, %11
  %62 = load ptr, ptr %2, align 8
  ret ptr %62
}