; Function Attrs: nounwind uwtable
define noalias noundef ptr @Scl_LibertyStart(ptr noundef %0) local_unnamed_addr #4 {
  %2 = alloca %struct.timespec, align 8
  br label %3

3:                                                ; preds = %6, %1
  %.0.i = phi ptr [ %0, %1 ], [ %7, %6 ]
  %4 = load i8, ptr %.0.i, align 1
  switch i8 %4, label %6 [
    i8 0, label %Scl_LibertyFixFileName.exit
    i8 62, label %5
  ]

5:                                                ; preds = %3
  store i8 92, ptr %.0.i, align 1
  br label %6

6:                                                ; preds = %5, %3
  %7 = getelementptr inbounds nuw i8, ptr %.0.i, i64 1
  br label %3, !llvm.loop !21

Scl_LibertyFixFileName.exit:                      ; preds = %3
  %8 = tail call noalias ptr @fopen(ptr noundef readonly %0, ptr noundef nonnull @.str.9)
  %9 = icmp eq ptr %8, null
  br i1 %9, label %Scl_LibertyFileSize.exit.thread, label %Scl_LibertyFileSize.exit

Scl_LibertyFileSize.exit.thread:                  ; preds = %Scl_LibertyFixFileName.exit
  %puts.i = tail call i32 @puts(ptr nonnull dereferenceable(1) @str.1)
  br label %58

Scl_LibertyFileSize.exit:                         ; preds = %Scl_LibertyFixFileName.exit
  %10 = tail call i32 @fseek(ptr noundef nonnull %8, i64 noundef 0, i32 noundef 2)
  %11 = tail call i64 @ftell(ptr noundef nonnull %8)
  %12 = tail call i32 @fclose(ptr noundef nonnull %8)
  %13 = icmp eq i64 %11, 0
  br i1 %13, label %58, label %14

14:                                               ; preds = %Scl_LibertyFileSize.exit
  %calloc = tail call dereferenceable_or_null(72) ptr @calloc(i64 1, i64 72)
  call void @llvm.lifetime.start.p0(i64 16, ptr nonnull %2)
  %15 = call i32 @clock_gettime(i32 noundef 1, ptr noundef nonnull %2) #29
  %16 = icmp slt i32 %15, 0
  br i1 %16, label %Abc_Clock.exit, label %17

17:                                               ; preds = %14
  %18 = load i64, ptr %2, align 8
  %19 = mul nsw i64 %18, 1000000
  %20 = getelementptr inbounds nuw i8, ptr %2, i64 8
  %21 = load i64, ptr %20, align 8
  %22 = sdiv i64 %21, 1000
  %23 = add nsw i64 %22, %19
  br label %Abc_Clock.exit

Abc_Clock.exit:                                   ; preds = %14, %17
  %.0.i24 = phi i64 [ %23, %17 ], [ -1, %14 ]
  call void @llvm.lifetime.end.p0(i64 16, ptr nonnull %2)
  %24 = getelementptr inbounds nuw i8, ptr %calloc, i64 56
  store i64 %.0.i24, ptr %24, align 8
  %25 = getelementptr inbounds nuw i8, ptr %calloc, i64 16
  store i64 %11, ptr %25, align 8
  %26 = call noalias ptr @fopen(ptr noundef readonly %0, ptr noundef nonnull @.str.9)
  %27 = add nsw i64 %11, 1
  %28 = call noalias ptr @malloc(i64 noundef %27) #28
  %29 = call i64 @fread(ptr noundef %28, i64 noundef %11, i64 noundef 1, ptr noundef %26)
  %30 = call i32 @fclose(ptr noundef %26)
  %31 = getelementptr inbounds i8, ptr %28, i64 %11
  store i8 0, ptr %31, align 1
  %32 = getelementptr inbounds nuw i8, ptr %calloc, i64 8
  store ptr %28, ptr %32, align 8
  %.not.i = icmp eq ptr %0, null
  br i1 %.not.i, label %Abc_UtilStrsav.exit, label %33

33:                                               ; preds = %Abc_Clock.exit
  %34 = call i64 @strlen(ptr noundef nonnull readonly dereferenceable(1) %0) #30
  %35 = add i64 %34, 1
  %36 = call noalias ptr @malloc(i64 noundef %35) #28
  %37 = call ptr @strcpy(ptr noundef nonnull dereferenceable(1) %36, ptr noundef nonnull readonly dereferenceable(1) %0) #29
  br label %Abc_UtilStrsav.exit

Abc_UtilStrsav.exit:                              ; preds = %Abc_Clock.exit, %33
  %38 = phi ptr [ %36, %33 ], [ null, %Abc_Clock.exit ]
  store ptr %38, ptr %calloc, align 8
  %39 = icmp sgt i64 %11, 0
  br i1 %39, label %.lr.ph.i, label %Scl_LibertyCountItems.exit

.lr.ph.i:                                         ; preds = %Abc_UtilStrsav.exit, %.lr.ph.i
  %.09.i = phi i32 [ %44, %.lr.ph.i ], [ 0, %Abc_UtilStrsav.exit ]
  %.068.i = phi ptr [ %45, %.lr.ph.i ], [ %28, %Abc_UtilStrsav.exit ]
  %40 = load i8, ptr %.068.i, align 1
  %41 = icmp eq i8 %40, 40
  %42 = icmp eq i8 %40, 58
  %narrow.i = or i1 %41, %42
  %43 = zext i1 %narrow.i to i32
  %44 = add nuw nsw i32 %.09.i, %43
  %45 = getelementptr inbounds nuw i8, ptr %.068.i, i64 1
  %exitcond.not.i = icmp eq ptr %45, %31
  br i1 %exitcond.not.i, label %Scl_LibertyCountItems.exit.loopexit, label %.lr.ph.i, !llvm.loop !7

Scl_LibertyCountItems.exit.loopexit:              ; preds = %.lr.ph.i
  %46 = add nuw nsw i32 %44, 10
  br label %Scl_LibertyCountItems.exit

Scl_LibertyCountItems.exit:                       ; preds = %Scl_LibertyCountItems.exit.loopexit, %Abc_UtilStrsav.exit
  %.0.lcssa.i = phi i32 [ 10, %Abc_UtilStrsav.exit ], [ %46, %Scl_LibertyCountItems.exit.loopexit ]
  %47 = getelementptr inbounds nuw i8, ptr %calloc, i64 32
  store i32 %.0.lcssa.i, ptr %47, align 8
  %48 = sext i32 %.0.lcssa.i to i64
  %49 = call noalias ptr @calloc(i64 noundef %48, i64 noundef 40) #31
  %50 = getelementptr inbounds nuw i8, ptr %calloc, i64 40
  store ptr %49, ptr %50, align 8
  %51 = getelementptr inbounds nuw i8, ptr %calloc, i64 28
  store i32 0, ptr %51, align 4
  %52 = getelementptr inbounds nuw i8, ptr %calloc, i64 24
  store i32 1, ptr %52, align 8
  %53 = call noalias dereferenceable_or_null(16) ptr @malloc(i64 noundef 16) #28
  %54 = getelementptr inbounds nuw i8, ptr %53, i64 4
  store i32 16, ptr %53, align 8
  %55 = call noalias dereferenceable_or_null(16) ptr @malloc(i64 noundef 16) #28
  %56 = getelementptr inbounds nuw i8, ptr %53, i64 8
  store ptr %55, ptr %56, align 8
  store i32 10, ptr %54, align 4
  call void @llvm.memset.p0.i64(ptr noundef nonnull align 1 dereferenceable(10) %55, i8 0, i64 10, i1 false)
  %57 = getelementptr inbounds nuw i8, ptr %calloc, i64 64
  store ptr %53, ptr %57, align 8
  br label %58

58:                                               ; preds = %Scl_LibertyFileSize.exit.thread, %Scl_LibertyFileSize.exit, %Scl_LibertyCountItems.exit
  %.0 = phi ptr [ %calloc, %Scl_LibertyCountItems.exit ], [ null, %Scl_LibertyFileSize.exit ], [ null, %Scl_LibertyFileSize.exit.thread ]
  ret ptr %.0
}